target datalayout = "e-m:e-p270:32:32-p271:32:32-p272:64:64-i64:64-i128:128-f80:128-n8:16:32:64-S128"
target triple = "x86_64-pc-linux-gnu"

%struct.ssl_aead_ctx_st = type { ptr, %struct.evp_aead_ctx_st, [12 x i8], i8, i8, i8, i8, i8, i8, i8 }
%struct.evp_aead_ctx_st = type { ptr, ptr }
%struct.ssl_cipher_st = type { ptr, i32, i32, i32, i32, i32, i32 }

@.str = private unnamed_addr constant [122 x i8] c"generated/home/dtcxzyw/WorkSpace/Projects/compilers/llvm-opt-benchmark/bench/libquic/libquic/boringssl/ssl/ssl_aead_ctx.c\00", align 1

; Function Attrs: nounwind uwtable
define hidden ptr @SSL_AEAD_CTX_new(i32 noundef %0, i16 noundef zeroext %1, ptr noundef %2, ptr noundef %3, i64 noundef %4, ptr noundef %5, i64 noundef %6, ptr noundef %7, i64 noundef %8) #0 {
  %10 = alloca ptr, align 8
  %11 = alloca i32, align 4
  %12 = alloca i16, align 2
  %13 = alloca ptr, align 8
  %14 = alloca ptr, align 8
  %15 = alloca i64, align 8
  %16 = alloca ptr, align 8
  %17 = alloca i64, align 8
  %18 = alloca ptr, align 8
  %19 = alloca i64, align 8
  %20 = alloca ptr, align 8
  %21 = alloca i64, align 8
  %22 = alloca i32, align 4
  %23 = alloca [80 x i8], align 16
  %24 = alloca ptr, align 8
  store i32 %0, ptr %11, align 4, !tbaa !6
  store i16 %1, ptr %12, align 2, !tbaa !10
  store ptr %2, ptr %13, align 8, !tbaa !12
  store ptr %3, ptr %14, align 8, !tbaa !15
  store i64 %4, ptr %15, align 8, !tbaa !17
  store ptr %5, ptr %16, align 8, !tbaa !15
  store i64 %6, ptr %17, align 8, !tbaa !17
  store ptr %7, ptr %18, align 8, !tbaa !15
  store i64 %8, ptr %19, align 8, !tbaa !17
  call void @llvm.lifetime.start.p0(i64 8, ptr %20) #7
  call void @llvm.lifetime.start.p0(i64 8, ptr %21) #7
  %25 = load ptr, ptr %13, align 8, !tbaa !12
  %26 = load i16, ptr %12, align 2, !tbaa !10
  %27 = call i32 @ssl_cipher_get_evp_aead(ptr noundef %20, ptr noundef %21, ptr noundef %21, ptr noundef %25, i16 noundef zeroext %26)
  %28 = icmp ne i32 %27, 0
  br i1 %28, label %30, label %29

29:                                               ; preds = %9
  call void @ERR_put_error(i32 noundef 16, i32 noundef 0, i32 noundef 68, ptr noundef @.str, i32 noundef 39)
  store ptr null, ptr %10, align 8
  store i32 1, ptr %22, align 4
  br label %150

30:                                               ; preds = %9
  call void @llvm.lifetime.start.p0(i64 80, ptr %23) #7
  %31 = load i64, ptr %17, align 8, !tbaa !17
  %32 = icmp ugt i64 %31, 0
  br i1 %32, label %33, label %64

33:                                               ; preds = %30
  %34 = load i64, ptr %17, align 8, !tbaa !17
  %35 = load i64, ptr %15, align 8, !tbaa !17
  %36 = add i64 %34, %35
  %37 = load i64, ptr %19, align 8, !tbaa !17
  %38 = add i64 %36, %37
  %39 = icmp ugt i64 %38, 80
  br i1 %39, label %40, label %41

40:                                               ; preds = %33
  call void @ERR_put_error(i32 noundef 16, i32 noundef 0, i32 noundef 68, ptr noundef @.str, i32 noundef 48)
  store ptr null, ptr %10, align 8
  store i32 1, ptr %22, align 4
  br label %149

41:                                               ; preds = %33
  %42 = getelementptr inbounds [80 x i8], ptr %23, i64 0, i64 0
  %43 = load ptr, ptr %16, align 8, !tbaa !15
  %44 = load i64, ptr %17, align 8, !tbaa !17
  call void @llvm.memcpy.p0.p0.i64(ptr align 16 %42, ptr align 1 %43, i64 %44, i1 false)
  %45 = getelementptr inbounds [80 x i8], ptr %23, i64 0, i64 0
  %46 = load i64, ptr %17, align 8, !tbaa !17
  %47 = getelementptr inbounds nuw i8, ptr %45, i64 %46
  %48 = load ptr, ptr %14, align 8, !tbaa !15
  %49 = load i64, ptr %15, align 8, !tbaa !17
  call void @llvm.memcpy.p0.p0.i64(ptr align 1 %47, ptr align 1 %48, i64 %49, i1 false)
  %50 = getelementptr inbounds [80 x i8], ptr %23, i64 0, i64 0
  %51 = load i64, ptr %17, align 8, !tbaa !17
  %52 = getelementptr inbounds nuw i8, ptr %50, i64 %51
  %53 = load i64, ptr %15, align 8, !tbaa !17
  %54 = getelementptr inbounds nuw i8, ptr %52, i64 %53
  %55 = load ptr, ptr %18, align 8, !tbaa !15
  %56 = load i64, ptr %19, align 8, !tbaa !17
  call void @llvm.memcpy.p0.p0.i64(ptr align 1 %54, ptr align 1 %55, i64 %56, i1 false)
  %57 = getelementptr inbounds [80 x i8], ptr %23, i64 0, i64 0
  store ptr %57, ptr %14, align 8, !tbaa !15
  %58 = load i64, ptr %17, align 8, !tbaa !17
  %59 = load i64, ptr %15, align 8, !tbaa !17
  %60 = add i64 %59, %58
  store i64 %60, ptr %15, align 8, !tbaa !17
  %61 = load i64, ptr %19, align 8, !tbaa !17
  %62 = load i64, ptr %15, align 8, !tbaa !17
  %63 = add i64 %62, %61
  store i64 %63, ptr %15, align 8, !tbaa !17
  br label %64

64:                                               ; preds = %41, %30
  call void @llvm.lifetime.start.p0(i64 8, ptr %24) #7
  %65 = call noalias ptr @malloc(i64 noundef 48) #8
  store ptr %65, ptr %24, align 8, !tbaa !19
  %66 = load ptr, ptr %24, align 8, !tbaa !19
  %67 = icmp eq ptr %66, null
  br i1 %67, label %68, label %69

68:                                               ; preds = %64
  call void @ERR_put_error(i32 noundef 16, i32 noundef 0, i32 noundef 65, ptr noundef @.str, i32 noundef 61)
  store ptr null, ptr %10, align 8
  store i32 1, ptr %22, align 4
  br label %148

69:                                               ; preds = %64
  %70 = load ptr, ptr %24, align 8, !tbaa !19
  call void @llvm.memset.p0.i64(ptr align 8 %70, i8 0, i64 48, i1 false)
  %71 = load ptr, ptr %13, align 8, !tbaa !12
  %72 = load ptr, ptr %24, align 8, !tbaa !19
  %73 = getelementptr inbounds nuw %struct.ssl_aead_ctx_st, ptr %72, i32 0, i32 0
  store ptr %71, ptr %73, align 8, !tbaa !21
  %74 = load ptr, ptr %24, align 8, !tbaa !19
  %75 = getelementptr inbounds nuw %struct.ssl_aead_ctx_st, ptr %74, i32 0, i32 1
  %76 = load ptr, ptr %20, align 8, !tbaa !25
  %77 = load ptr, ptr %14, align 8, !tbaa !15
  %78 = load i64, ptr %15, align 8, !tbaa !17
  %79 = load i32, ptr %11, align 4, !tbaa !6
  %80 = call i32 @EVP_AEAD_CTX_init_with_direction(ptr noundef %75, ptr noundef %76, ptr noundef %77, i64 noundef %78, i64 noundef 0, i32 noundef %79)
  %81 = icmp ne i32 %80, 0
  br i1 %81, label %84, label %82

82:                                               ; preds = %69
  %83 = load ptr, ptr %24, align 8, !tbaa !19
  call void @free(ptr noundef %83) #7
  store ptr null, ptr %10, align 8
  store i32 1, ptr %22, align 4
  br label %148

84:                                               ; preds = %69
  %85 = load ptr, ptr %20, align 8, !tbaa !25
  %86 = call i64 @EVP_AEAD_nonce_length(ptr noundef %85)
  %87 = trunc i64 %86 to i8
  %88 = load ptr, ptr %24, align 8, !tbaa !19
  %89 = getelementptr inbounds nuw %struct.ssl_aead_ctx_st, ptr %88, i32 0, i32 4
  store i8 %87, ptr %89, align 1, !tbaa !26
  %90 = load i64, ptr %17, align 8, !tbaa !17
  %91 = icmp eq i64 %90, 0
  br i1 %91, label %92, label %132

92:                                               ; preds = %84
  %93 = load ptr, ptr %24, align 8, !tbaa !19
  %94 = getelementptr inbounds nuw %struct.ssl_aead_ctx_st, ptr %93, i32 0, i32 2
  %95 = getelementptr inbounds [12 x i8], ptr %94, i64 0, i64 0
  %96 = load ptr, ptr %18, align 8, !tbaa !15
  %97 = load i64, ptr %19, align 8, !tbaa !17
  call void @llvm.memcpy.p0.p0.i64(ptr align 8 %95, ptr align 1 %96, i64 %97, i1 false)
  %98 = load i64, ptr %19, align 8, !tbaa !17
  %99 = trunc i64 %98 to i8
  %100 = load ptr, ptr %24, align 8, !tbaa !19
  %101 = getelementptr inbounds nuw %struct.ssl_aead_ctx_st, ptr %100, i32 0, i32 3
  store i8 %99, ptr %101, align 4, !tbaa !27
  %102 = load ptr, ptr %13, align 8, !tbaa !12
  %103 = getelementptr inbounds nuw %struct.ssl_cipher_st, ptr %102, i32 0, i32 4
  %104 = load i32, ptr %103, align 4, !tbaa !28
  %105 = zext i32 %104 to i64
  %106 = and i64 %105, 256
  %107 = icmp ne i64 %106, 0
  br i1 %107, label %108, label %113

108:                                              ; preds = %92
  %109 = load ptr, ptr %24, align 8, !tbaa !19
  %110 = getelementptr inbounds nuw %struct.ssl_aead_ctx_st, ptr %109, i32 0, i32 9
  store i8 1, ptr %110, align 2, !tbaa !30
  %111 = load ptr, ptr %24, align 8, !tbaa !19
  %112 = getelementptr inbounds nuw %struct.ssl_aead_ctx_st, ptr %111, i32 0, i32 4
  store i8 8, ptr %112, align 1, !tbaa !26
  br label %121

113:                                              ; preds = %92
  %114 = load i64, ptr %19, align 8, !tbaa !17
  %115 = load ptr, ptr %24, align 8, !tbaa !19
  %116 = getelementptr inbounds nuw %struct.ssl_aead_ctx_st, ptr %115, i32 0, i32 4
  %117 = load i8, ptr %116, align 1, !tbaa !26
  %118 = zext i8 %117 to i64
  %119 = sub i64 %118, %114
  %120 = trunc i64 %119 to i8
  store i8 %120, ptr %116, align 1, !tbaa !26
  br label %121

121:                                              ; preds = %113, %108
  %122 = load ptr, ptr %13, align 8, !tbaa !12
  %123 = getelementptr inbounds nuw %struct.ssl_cipher_st, ptr %122, i32 0, i32 4
  %124 = load i32, ptr %123, align 4, !tbaa !28
  %125 = zext i32 %124 to i64
  %126 = and i64 %125, 48
  %127 = icmp ne i64 %126, 0
  br i1 %127, label %128, label %131

128:                                              ; preds = %121
  %129 = load ptr, ptr %24, align 8, !tbaa !19
  %130 = getelementptr inbounds nuw %struct.ssl_aead_ctx_st, ptr %129, i32 0, i32 5
  store i8 1, ptr %130, align 2, !tbaa !31
  br label %131

131:                                              ; preds = %128, %121
  br label %146

132:                                              ; preds = %84
  %133 = load ptr, ptr %24, align 8, !tbaa !19
  %134 = getelementptr inbounds nuw %struct.ssl_aead_ctx_st, ptr %133, i32 0, i32 5
  store i8 1, ptr %134, align 2, !tbaa !31
  %135 = load ptr, ptr %24, align 8, !tbaa !19
  %136 = getelementptr inbounds nuw %struct.ssl_aead_ctx_st, ptr %135, i32 0, i32 6
  store i8 1, ptr %136, align 1, !tbaa !32
  %137 = load ptr, ptr %24, align 8, !tbaa !19
  %138 = getelementptr inbounds nuw %struct.ssl_aead_ctx_st, ptr %137, i32 0, i32 7
  store i8 1, ptr %138, align 8, !tbaa !33
  %139 = load i16, ptr %12, align 2, !tbaa !10
  %140 = zext i16 %139 to i32
  %141 = icmp eq i32 %140, 768
  %142 = zext i1 %141 to i32
  %143 = trunc i32 %142 to i8
  %144 = load ptr, ptr %24, align 8, !tbaa !19
  %145 = getelementptr inbounds nuw %struct.ssl_aead_ctx_st, ptr %144, i32 0, i32 8
  store i8 %143, ptr %145, align 1, !tbaa !34
  br label %146

146:                                              ; preds = %132, %131
  %147 = load ptr, ptr %24, align 8, !tbaa !19
  store ptr %147, ptr %10, align 8
  store i32 1, ptr %22, align 4
  br label %148

148:                                              ; preds = %146, %82, %68
  call void @llvm.lifetime.end.p0(i64 8, ptr %24) #7
  br label %149

149:                                              ; preds = %148, %40
  call void @llvm.lifetime.end.p0(i64 80, ptr %23) #7
  br label %150

150:                                              ; preds = %149, %29
  call void @llvm.lifetime.end.p0(i64 8, ptr %21) #7
  call void @llvm.lifetime.end.p0(i64 8, ptr %20) #7
  %151 = load ptr, ptr %10, align 8
  ret ptr %151
}