; Function Attrs: nounwind uwtable
define hidden noundef ptr @SSL_AEAD_CTX_new(i32 noundef %0, i16 noundef zeroext %1, ptr noundef %2, ptr noundef %3, i64 noundef %4, ptr noundef readonly captures(none) %5, i64 noundef %6, ptr noundef readonly captures(none) %7, i64 noundef %8) local_unnamed_addr #0 {
  %10 = alloca ptr, align 8
  %11 = alloca i64, align 8
  %12 = alloca [80 x i8], align 16
  call void @llvm.lifetime.start.p0(i64 8, ptr nonnull %10) #8
  call void @llvm.lifetime.start.p0(i64 8, ptr nonnull %11) #8
  %13 = call i32 @ssl_cipher_get_evp_aead(ptr noundef nonnull %10, ptr noundef nonnull %11, ptr noundef nonnull %11, ptr noundef %2, i16 noundef zeroext %1) #8
  %.not = icmp eq i32 %13, 0
  br i1 %.not, label %14, label %15

14:                                               ; preds = %9
  call void @ERR_put_error(i32 noundef 16, i32 noundef 0, i32 noundef 68, ptr noundef nonnull @.str, i32 noundef 39) #8
  br label %61

15:                                               ; preds = %9
  call void @llvm.lifetime.start.p0(i64 80, ptr nonnull %12) #8
  %.not53 = icmp eq i64 %6, 0
  br i1 %.not53, label %24, label %16

16:                                               ; preds = %15
  %17 = add i64 %6, %4
  %18 = add i64 %17, %8
  %19 = icmp ugt i64 %18, 80
  br i1 %19, label %20, label %21

20:                                               ; preds = %16
  call void @ERR_put_error(i32 noundef 16, i32 noundef 0, i32 noundef 68, ptr noundef nonnull @.str, i32 noundef 48) #8
  br label %60

21:                                               ; preds = %16
  call void @llvm.memcpy.p0.p0.i64(ptr nonnull align 16 %12, ptr align 1 %5, i64 %6, i1 false)
  %22 = getelementptr inbounds nuw i8, ptr %12, i64 %6
  call void @llvm.memcpy.p0.p0.i64(ptr nonnull align 1 %22, ptr align 1 %3, i64 %4, i1 false)
  %23 = getelementptr inbounds nuw i8, ptr %22, i64 %4
  call void @llvm.memcpy.p0.p0.i64(ptr nonnull align 1 %23, ptr align 1 %7, i64 %8, i1 false)
  br label %24

24:                                               ; preds = %21, %15
  %.049 = phi i64 [ %18, %21 ], [ %4, %15 ]
  %.048 = phi ptr [ %12, %21 ], [ %3, %15 ]
  %calloc = call dereferenceable_or_null(48) ptr @calloc(i64 1, i64 48)
  %25 = icmp eq ptr %calloc, null
  br i1 %25, label %26, label %27

26:                                               ; preds = %24
  call void @ERR_put_error(i32 noundef 16, i32 noundef 0, i32 noundef 65, ptr noundef nonnull @.str, i32 noundef 61) #8
  br label %60

27:                                               ; preds = %24
  store ptr %2, ptr %calloc, align 8, !tbaa !6
  %28 = getelementptr inbounds nuw i8, ptr %calloc, i64 8
  %29 = load ptr, ptr %10, align 8, !tbaa !14
  %30 = call i32 @EVP_AEAD_CTX_init_with_direction(ptr noundef nonnull %28, ptr noundef %29, ptr noundef %.048, i64 noundef %.049, i64 noundef 0, i32 noundef %0) #8
  %.not54 = icmp eq i32 %30, 0
  br i1 %.not54, label %31, label %32

31:                                               ; preds = %27
  call void @free(ptr noundef nonnull %calloc) #8
  br label %60

32:                                               ; preds = %27
  %33 = load ptr, ptr %10, align 8, !tbaa !14
  %34 = call i64 @EVP_AEAD_nonce_length(ptr noundef %33) #8
  %35 = trunc i64 %34 to i8
  %36 = getelementptr inbounds nuw i8, ptr %calloc, i64 37
  store i8 %35, ptr %36, align 1, !tbaa !15
  br i1 %.not53, label %37, label %53

37:                                               ; preds = %32
  %38 = getelementptr inbounds nuw i8, ptr %calloc, i64 24
  call void @llvm.memcpy.p0.p0.i64(ptr nonnull align 8 %38, ptr align 1 %7, i64 %8, i1 false)
  %39 = trunc i64 %8 to i8
  %40 = getelementptr inbounds nuw i8, ptr %calloc, i64 36
  store i8 %39, ptr %40, align 4, !tbaa !16
  %41 = getelementptr inbounds nuw i8, ptr %2, i64 20
  %42 = load i32, ptr %41, align 4, !tbaa !17
  %43 = and i32 %42, 256
  %.not55 = icmp eq i32 %43, 0
  br i1 %.not55, label %46, label %44

44:                                               ; preds = %37
  %45 = getelementptr inbounds nuw i8, ptr %calloc, i64 42
  store i8 1, ptr %45, align 2, !tbaa !21
  br label %49

46:                                               ; preds = %37
  %47 = load i8, ptr %36, align 1, !tbaa !15
  %48 = sub i8 %47, %39
  br label %49

49:                                               ; preds = %46, %44
  %storemerge = phi i8 [ %48, %46 ], [ 8, %44 ]
  store i8 %storemerge, ptr %36, align 1, !tbaa !15
  %50 = and i32 %42, 48
  %.not56 = icmp eq i32 %50, 0
  br i1 %.not56, label %60, label %51

51:                                               ; preds = %49
  %52 = getelementptr inbounds nuw i8, ptr %calloc, i64 38
  store i8 1, ptr %52, align 2, !tbaa !22
  br label %60

53:                                               ; preds = %32
  %54 = getelementptr inbounds nuw i8, ptr %calloc, i64 38
  store i8 1, ptr %54, align 2, !tbaa !22
  %55 = getelementptr inbounds nuw i8, ptr %calloc, i64 39
  store i8 1, ptr %55, align 1, !tbaa !23
  %56 = getelementptr inbounds nuw i8, ptr %calloc, i64 40
  store i8 1, ptr %56, align 8, !tbaa !24
  %57 = icmp eq i16 %1, 768
  %58 = zext i1 %57 to i8
  %59 = getelementptr inbounds nuw i8, ptr %calloc, i64 41
  store i8 %58, ptr %59, align 1, !tbaa !25
  br label %60

60:                                               ; preds = %26, %31, %49, %51, %53, %20
  %.1 = phi ptr [ null, %20 ], [ null, %26 ], [ null, %31 ], [ %calloc, %49 ], [ %calloc, %51 ], [ %calloc, %53 ]
  call void @llvm.lifetime.end.p0(i64 80, ptr nonnull %12) #8
  br label %61

61:                                               ; preds = %60, %14
  %.0 = phi ptr [ %.1, %60 ], [ null, %14 ]
  call void @llvm.lifetime.end.p0(i64 8, ptr nonnull %11) #8
  call void @llvm.lifetime.end.p0(i64 8, ptr nonnull %10) #8
  ret ptr %.0
}